; Function Attrs: nounwind uwtable
define hidden i32 @mbedtls_cipher_cmac_starts(ptr noundef %0, ptr noundef %1, i64 noundef %2) local_unnamed_addr #0 {
  %4 = icmp eq ptr %0, null
  br i1 %4, label %mbedtls_cipher_info_get_type.exit.thread, label %5

5:                                                ; preds = %3
  %6 = load ptr, ptr %0, align 8, !tbaa !3
  %7 = icmp eq ptr %6, null
  %8 = icmp eq ptr %1, null
  %or.cond = or i1 %8, %7
  br i1 %or.cond, label %mbedtls_cipher_info_get_type.exit.thread, label %9

9:                                                ; preds = %5
  %10 = trunc i64 %2 to i32
  %11 = tail call i32 @mbedtls_cipher_setkey(ptr noundef nonnull %0, ptr noundef nonnull %1, i32 noundef %10, i32 noundef 1) #13
  %.not = icmp eq i32 %11, 0
  br i1 %.not, label %12, label %mbedtls_cipher_info_get_type.exit.thread

12:                                               ; preds = %9
  %13 = load ptr, ptr %0, align 8, !tbaa !3
  %14 = icmp eq ptr %13, null
  br i1 %14, label %mbedtls_cipher_info_get_type.exit.thread, label %mbedtls_cipher_info_get_type.exit

mbedtls_cipher_info_get_type.exit:                ; preds = %12
  %15 = getelementptr inbounds nuw i8, ptr %13, i64 8
  %16 = load i32, ptr %15, align 8
  %17 = lshr i32 %16, 16
  %trunc = trunc i32 %17 to i8
  switch i8 %trunc, label %mbedtls_cipher_info_get_type.exit.thread [
    i8 2, label %18
    i8 3, label %18
    i8 4, label %18
    i8 36, label %18
  ]

18:                                               ; preds = %mbedtls_cipher_info_get_type.exit, %mbedtls_cipher_info_get_type.exit, %mbedtls_cipher_info_get_type.exit, %mbedtls_cipher_info_get_type.exit
  %19 = tail call noalias dereferenceable_or_null(40) ptr @calloc(i64 noundef 1, i64 noundef 40) #14
  %20 = icmp eq ptr %19, null
  br i1 %20, label %mbedtls_cipher_info_get_type.exit.thread, label %21

21:                                               ; preds = %18
  %22 = getelementptr inbounds nuw i8, ptr %0, i64 88
  store ptr %19, ptr %22, align 8, !tbaa !12
  tail call void @mbedtls_platform_zeroize(ptr noundef nonnull %19, i64 noundef 16) #13
  br label %mbedtls_cipher_info_get_type.exit.thread

mbedtls_cipher_info_get_type.exit.thread:         ; preds = %12, %18, %mbedtls_cipher_info_get_type.exit, %9, %3, %5, %21
  %.0 = phi i32 [ 0, %21 ], [ -24832, %5 ], [ -24832, %3 ], [ %11, %9 ], [ -24832, %mbedtls_cipher_info_get_type.exit ], [ -24960, %18 ], [ -24832, %12 ]
  ret i32 %.0
}